; ModuleID = '53/128.c'
source_filename = "53/128.c"
target datalayout = "e-m:e-p270:32:32-p271:32:32-p272:64:64-i64:64-f80:128-n8:16:32:64-S128"
target triple = "x86_64-pc-linux-gnu"

@.str = private unnamed_addr constant [3 x i8] c"%d\00", align 1
@.str.1 = private unnamed_addr constant [4 x i8] c"%d,\00", align 1

; Function Attrs: noinline nounwind uwtable
define dso_local void @main() #0 {
  %1 = alloca [300 x i32], align 16
  %2 = alloca i32*, align 8
  %3 = alloca i32*, align 8
  %4 = alloca [300 x i32], align 16
  %5 = alloca i32, align 4
  %6 = alloca i32, align 4
  %7 = alloca i32, align 4
  %8 = alloca i32, align 4
  %9 = alloca i32, align 4
  %10 = alloca i32, align 4
  store i32 1, i32* %7, align 4
  %11 = call i32 (i8*, ...) @__isoc99_scanf(i8* getelementptr inbounds ([3 x i8], [3 x i8]* @.str, i64 0, i64 0), i32* %9)
  store i32 0, i32* %5, align 4
  br label %12

12:                                               ; preds = %21, %0
  %13 = load i32, i32* %5, align 4
  %14 = load i32, i32* %9, align 4
  %15 = icmp slt i32 %13, %14
  br i1 %15, label %16, label %24

16:                                               ; preds = %12
  %17 = load i32, i32* %5, align 4
  %18 = sext i32 %17 to i64
  %19 = getelementptr inbounds [300 x i32], [300 x i32]* %1, i64 0, i64 %18
  %20 = call i32 (i8*, ...) @__isoc99_scanf(i8* getelementptr inbounds ([3 x i8], [3 x i8]* @.str, i64 0, i64 0), i32* %19)
  br label %21

21:                                               ; preds = %16
  %22 = load i32, i32* %5, align 4
  %23 = add nsw i32 %22, 1
  store i32 %23, i32* %5, align 4
  br label %12

24:                                               ; preds = %12
  %25 = getelementptr inbounds [300 x i32], [300 x i32]* %4, i64 0, i64 0
  store i32* %25, i32** %3, align 8
  %26 = getelementptr inbounds [300 x i32], [300 x i32]* %1, i64 0, i64 0
  store i32* %26, i32** %2, align 8
  %27 = getelementptr inbounds [300 x i32], [300 x i32]* %1, i64 0, i64 0
  %28 = load i32, i32* %27, align 16
  %29 = getelementptr inbounds [300 x i32], [300 x i32]* %4, i64 0, i64 0
  store i32 %28, i32* %29, align 16
  store i32 0, i32* %5, align 4
  br label %30

30:                                               ; preds = %75, %24
  %31 = load i32, i32* %5, align 4
  %32 = load i32, i32* %9, align 4
  %33 = icmp slt i32 %31, %32
  br i1 %33, label %34, label %78

34:                                               ; preds = %30
  store i32 0, i32* %8, align 4
  store i32 0, i32* %6, align 4
  br label %35

35:                                               ; preds = %55, %34
  %36 = load i32, i32* %6, align 4
  %37 = load i32, i32* %7, align 4
  %38 = icmp slt i32 %36, %37
  br i1 %38, label %39, label %58

39:                                               ; preds = %35
  %40 = load i32*, i32** %2, align 8
  %41 = load i32, i32* %5, align 4
  %42 = sext i32 %41 to i64
  %43 = getelementptr inbounds i32, i32* %40, i64 %42
  %44 = load i32, i32* %43, align 4
  %45 = load i32*, i32** %3, align 8
  %46 = load i32, i32* %6, align 4
  %47 = sext i32 %46 to i64
  %48 = getelementptr inbounds i32, i32* %45, i64 %47
  %49 = load i32, i32* %48, align 4
  %50 = icmp ne i32 %44, %49
  br i1 %50, label %51, label %54

51:                                               ; preds = %39
  %52 = load i32, i32* %8, align 4
  %53 = add nsw i32 %52, 1
  store i32 %53, i32* %8, align 4
  br label %54

54:                                               ; preds = %51, %39
  br label %55

55:                                               ; preds = %54
  %56 = load i32, i32* %6, align 4
  %57 = add nsw i32 %56, 1
  store i32 %57, i32* %6, align 4
  br label %35

58:                                               ; preds = %35
  %59 = load i32, i32* %8, align 4
  %60 = load i32, i32* %7, align 4
  %61 = icmp eq i32 %59, %60
  br i1 %61, label %62, label %74

62:                                               ; preds = %58
  %63 = load i32*, i32** %2, align 8
  %64 = load i32, i32* %5, align 4
  %65 = sext i32 %64 to i64
  %66 = getelementptr inbounds i32, i32* %63, i64 %65
  %67 = load i32, i32* %66, align 4
  %68 = load i32*, i32** %3, align 8
  %69 = load i32, i32* %7, align 4
  %70 = sext i32 %69 to i64
  %71 = getelementptr inbounds i32, i32* %68, i64 %70
  store i32 %67, i32* %71, align 4
  %72 = load i32, i32* %7, align 4
  %73 = add nsw i32 %72, 1
  store i32 %73, i32* %7, align 4
  br label %74

74:                                               ; preds = %62, %58
  br label %75

75:                                               ; preds = %74
  %76 = load i32, i32* %5, align 4
  %77 = add nsw i32 %76, 1
  store i32 %77, i32* %5, align 4
  br label %30

78:                                               ; preds = %30
  %79 = getelementptr inbounds [300 x i32], [300 x i32]* %4, i64 0, i64 0
  store i32* %79, i32** %3, align 8
  store i32 0, i32* %5, align 4
  br label %80

80:                                               ; preds = %92, %78
  %81 = load i32, i32* %5, align 4
  %82 = load i32, i32* %7, align 4
  %83 = sub nsw i32 %82, 1
  %84 = icmp slt i32 %81, %83
  br i1 %84, label %85, label %95

85:                                               ; preds = %80
  %86 = load i32*, i32** %3, align 8
  %87 = load i32, i32* %5, align 4
  %88 = sext i32 %87 to i64
  %89 = getelementptr inbounds i32, i32* %86, i64 %88
  %90 = load i32, i32* %89, align 4
  %91 = call i32 (i8*, ...) @printf(i8* getelementptr inbounds ([4 x i8], [4 x i8]* @.str.1, i64 0, i64 0), i32 %90)
  br label %92

92:                                               ; preds = %85
  %93 = load i32, i32* %5, align 4
  %94 = add nsw i32 %93, 1
  store i32 %94, i32* %5, align 4
  br label %80

95:                                               ; preds = %80
  %96 = load i32*, i32** %3, align 8
  %97 = load i32, i32* %7, align 4
  %98 = sext i32 %97 to i64
  %99 = getelementptr inbounds i32, i32* %96, i64 %98
  %100 = getelementptr inbounds i32, i32* %99, i64 -1
  %101 = load i32, i32* %100, align 4
  %102 = call i32 (i8*, ...) @printf(i8* getelementptr inbounds ([3 x i8], [3 x i8]* @.str, i64 0, i64 0), i32 %101)
  ret void
}

declare dso_local i32 @__isoc99_scanf(i8*, ...) #1

declare dso_local i32 @printf(i8*, ...) #1


!llvm.module.flags = !{!0}
!llvm.ident = !{!1}

!0 = !{i32 1, !"wchar_size", i32 4}
!1 = !{!"clang version 10.0.0-4ubuntu1 "}
